target datalayout = "e-m:e-p270:32:32-p271:32:32-p272:64:64-i64:64-i128:128-f80:128-n8:16:32:64-S128"
target triple = "x86_64-pc-linux-gnu"

@.str.1 = private unnamed_addr constant [2 x i8] c"\0A\00", align 1
@.str.74 = private unnamed_addr constant [7 x i8] c"server\00", align 1
@.str.75 = private unnamed_addr constant [7 x i8] c"client\00", align 1
@.str.115 = private unnamed_addr constant [37 x i8] c"---\0ANo %s certificate CA names sent\0A\00", align 1
@.str.116 = private unnamed_addr constant [40 x i8] c"---\0AAcceptable %s certificate CA names\0A\00", align 1

; Function Attrs: inlinehint nounwind uwtable
define internal ptr @ossl_check_const_X509_NAME_sk_type(ptr noundef %0) #7 {
  %2 = alloca ptr, align 8
  store ptr %0, ptr %2, align 8, !tbaa !109
  %3 = load ptr, ptr %2, align 8, !tbaa !109
  ret ptr %3
}

; Function Attrs: nounwind uwtable
define void @print_ca_names(ptr noundef %0, ptr noundef %1) #0 {
  %3 = alloca ptr, align 8
  %4 = alloca ptr, align 8
  %5 = alloca ptr, align 8
  %6 = alloca ptr, align 8
  %7 = alloca i32, align 4
  %8 = alloca i32, align 4
  store ptr %0, ptr %3, align 8, !tbaa !14
  store ptr %1, ptr %4, align 8, !tbaa !27
  call void @llvm.lifetime.start.p0(i64 8, ptr %5) #10
  %9 = load ptr, ptr %4, align 8, !tbaa !27
  %10 = call i32 @SSL_is_server(ptr noundef %9)
  %11 = icmp ne i32 %10, 0
  %12 = select i1 %11, ptr @.str.74, ptr @.str.75
  store ptr %12, ptr %5, align 8, !tbaa !21
  call void @llvm.lifetime.start.p0(i64 8, ptr %6) #10
  %13 = load ptr, ptr %4, align 8, !tbaa !27
  %14 = call ptr @SSL_get0_peer_CA_list(ptr noundef %13)
  store ptr %14, ptr %6, align 8, !tbaa !109
  call void @llvm.lifetime.start.p0(i64 4, ptr %7) #10
  %15 = load ptr, ptr %6, align 8, !tbaa !109
  %16 = icmp eq ptr %15, null
  br i1 %16, label %22, label %17

17:                                               ; preds = %2
  %18 = load ptr, ptr %6, align 8, !tbaa !109
  %19 = call ptr @ossl_check_const_X509_NAME_sk_type(ptr noundef %18)
  %20 = call i32 @OPENSSL_sk_num(ptr noundef %19)
  %21 = icmp eq i32 %20, 0
  br i1 %21, label %22, label %31

22:                                               ; preds = %17, %2
  %23 = load ptr, ptr %4, align 8, !tbaa !27
  %24 = call i32 @SSL_is_server(ptr noundef %23)
  %25 = icmp ne i32 %24, 0
  br i1 %25, label %30, label %26

26:                                               ; preds = %22
  %27 = load ptr, ptr %3, align 8, !tbaa !14
  %28 = load ptr, ptr %5, align 8, !tbaa !21
  %29 = call i32 (ptr, ptr, ...) @BIO_printf(ptr noundef %27, ptr noundef @.str.115, ptr noundef %28)
  br label %30

30:                                               ; preds = %26, %22
  store i32 1, ptr %8, align 4
  br label %55

31:                                               ; preds = %17
  %32 = load ptr, ptr %3, align 8, !tbaa !14
  %33 = load ptr, ptr %5, align 8, !tbaa !21
  %34 = call i32 (ptr, ptr, ...) @BIO_printf(ptr noundef %32, ptr noundef @.str.116, ptr noundef %33)
  store i32 0, ptr %7, align 4, !tbaa !3
  br label %35

35:                                               ; preds = %51, %31
  %36 = load i32, ptr %7, align 4, !tbaa !3
  %37 = load ptr, ptr %6, align 8, !tbaa !109
  %38 = call ptr @ossl_check_const_X509_NAME_sk_type(ptr noundef %37)
  %39 = call i32 @OPENSSL_sk_num(ptr noundef %38)
  %40 = icmp slt i32 %36, %39
  br i1 %40, label %41, label %54

41:                                               ; preds = %35
  %42 = load ptr, ptr %3, align 8, !tbaa !14
  %43 = load ptr, ptr %6, align 8, !tbaa !109
  %44 = call ptr @ossl_check_const_X509_NAME_sk_type(ptr noundef %43)
  %45 = load i32, ptr %7, align 4, !tbaa !3
  %46 = call ptr @OPENSSL_sk_value(ptr noundef %44, i32 noundef %45)
  %47 = call i64 @get_nameopt()
  %48 = call i32 @X509_NAME_print_ex(ptr noundef %42, ptr noundef %46, i32 noundef 0, i64 noundef %47)
  %49 = load ptr, ptr %3, align 8, !tbaa !14
  %50 = call i32 @BIO_write(ptr noundef %49, ptr noundef @.str.1, i32 noundef 1)
  br label %51

51:                                               ; preds = %41
  %52 = load i32, ptr %7, align 4, !tbaa !3
  %53 = add nsw i32 %52, 1
  store i32 %53, ptr %7, align 4, !tbaa !3
  br label %35, !llvm.loop !111

54:                                               ; preds = %35
  store i32 0, ptr %8, align 4
  br label %55

55:                                               ; preds = %54, %30
  call void @llvm.lifetime.end.p0(i64 4, ptr %7) #10
  call void @llvm.lifetime.end.p0(i64 8, ptr %6) #10
  call void @llvm.lifetime.end.p0(i64 8, ptr %5) #10
  %56 = load i32, ptr %8, align 4
  switch i32 %56, label %58 [
    i32 0, label %57
    i32 1, label %57
  ]

57:                                               ; preds = %55, %55
  ret void

58:                                               ; preds = %55
  unreachable
}