; Function Attrs: nounwind uwtable
define void @print_ca_names(ptr noundef %0, ptr noundef %1) local_unnamed_addr #0 {
  %3 = tail call i32 @SSL_is_server(ptr noundef %1) #6
  %.not = icmp eq i32 %3, 0
  %4 = select i1 %.not, ptr @.str.75, ptr @.str.74
  %5 = tail call ptr @SSL_get0_peer_CA_list(ptr noundef %1) #6
  %6 = icmp eq ptr %5, null
  br i1 %6, label %10, label %7

7:                                                ; preds = %2
  %8 = tail call i32 @OPENSSL_sk_num(ptr noundef nonnull %5) #6
  %9 = icmp eq i32 %8, 0
  br i1 %9, label %10, label %14

10:                                               ; preds = %7, %2
  %11 = tail call i32 @SSL_is_server(ptr noundef %1) #6
  %.not16 = icmp eq i32 %11, 0
  br i1 %.not16, label %12, label %.loopexit

12:                                               ; preds = %10
  %13 = tail call i32 (ptr, ptr, ...) @BIO_printf(ptr noundef %0, ptr noundef nonnull @.str.115, ptr noundef nonnull %4) #6
  br label %.loopexit

14:                                               ; preds = %7
  %15 = tail call i32 (ptr, ptr, ...) @BIO_printf(ptr noundef %0, ptr noundef nonnull @.str.116, ptr noundef nonnull %4) #6
  %16 = tail call i32 @OPENSSL_sk_num(ptr noundef nonnull %5) #6
  %17 = icmp sgt i32 %16, 0
  br i1 %17, label %.lr.ph, label %.loopexit

.lr.ph:                                           ; preds = %14, %.lr.ph
  %.017 = phi i32 [ %22, %.lr.ph ], [ 0, %14 ]
  %18 = tail call ptr @OPENSSL_sk_value(ptr noundef nonnull %5, i32 noundef %.017) #6
  %19 = tail call i64 @get_nameopt() #6
  %20 = tail call i32 @X509_NAME_print_ex(ptr noundef %0, ptr noundef %18, i32 noundef 0, i64 noundef %19) #6
  %21 = tail call i32 @BIO_write(ptr noundef %0, ptr noundef nonnull @.str.1, i32 noundef 1) #6
  %22 = add nuw nsw i32 %.017, 1
  %23 = tail call i32 @OPENSSL_sk_num(ptr noundef nonnull %5) #6
  %24 = icmp slt i32 %22, %23
  br i1 %24, label %.lr.ph, label %.loopexit, !llvm.loop !75

.loopexit:                                        ; preds = %.lr.ph, %14, %10, %12
  ret void
}